target datalayout = "e-m:e-p270:32:32-p271:32:32-p272:64:64-i64:64-i128:128-f80:128-n8:16:32:64-S128"
target triple = "x86_64-pc-linux-gnu"

%class.GraphKit = type <{ ptr, %class.Phase, ptr, ptr, ptr, ptr, i32, [4 x i8], ptr, ptr, i32, [4 x i8] }>
%class.Phase = type { i32, ptr }
%class.MethodLivenessResult = type <{ %class.ResourceBitMap, i8, [7 x i8] }>
%class.ResourceBitMap = type { %class.GrowableBitMap }
%class.GrowableBitMap = type { %class.BitMap }
%class.BitMap = type { ptr, i64 }
%class.Parse = type { %class.GraphKit.base, ptr, float, float, i32, ptr, i32, ptr, ptr, i32, [4 x i8], %class.GraphKit, i8, i8, i8, i8, ptr, ptr, %class.ciBytecodeStream, ptr, i8, i8, i32 }
%class.GraphKit.base = type <{ ptr, %class.Phase, ptr, ptr, ptr, ptr, i32, [4 x i8], ptr, ptr, i32 }>
%class.ciBytecodeStream = type { ptr, ptr, ptr, ptr, ptr, ptr, ptr, ptr, i32, i32 }
%"class.Parse::Block" = type { ptr, i32, i32, i32, i8, i8, i8, ptr, %class.MethodLivenessResult, i8, i32, i32, ptr }
%"class.ciTypeFlow::Block" = type { ptr, ptr, ptr, ptr, %class.GrowableArray.12, ptr, ptr, i32, i32, i32, i32, i8, i8, i8, i8, i8, ptr, ptr, ptr }
%class.GrowableArray.12 = type { %class.GrowableArrayWithAllocator.13, %class.GrowableArrayMetadata }
%class.GrowableArrayWithAllocator.13 = type { %class.GrowableArrayView.14 }
%class.GrowableArrayView.14 = type { %class.GrowableArrayBase, ptr }
%class.GrowableArrayBase = type { i32, i32 }
%class.GrowableArrayMetadata = type { i64 }
%class.ciTypeFlow = type { ptr, ptr, i32, i8, ptr, ptr, ptr, ptr, ptr, i32, ptr, ptr }
%"class.ciTypeFlow::StateVector" = type { ptr, i32, i32, ptr, i32, i32, %"class.ciTypeFlow::LocalSet" }
%"class.ciTypeFlow::LocalSet" = type { i64 }

; Function Attrs: mustprogress nounwind uwtable
define linkonce_odr hidden noundef ptr @_ZNK10ciTypeFlow11StateVector5outerEv(ptr noundef nonnull align 8 dereferenceable(40) %0) #1 comdat align 2 {
  %2 = alloca ptr, align 8
  store ptr %0, ptr %2, align 8
  %3 = load ptr, ptr %2, align 8
  %4 = getelementptr inbounds %"class.ciTypeFlow::StateVector", ptr %3, i32 0, i32 3
  %5 = load ptr, ptr %4, align 8
  ret ptr %5
}

; Function Attrs: mustprogress nounwind uwtable
define linkonce_odr hidden noundef ptr @_ZNK10ciTypeFlow5Block5stateEv(ptr noundef nonnull align 8 dereferenceable(120) %0) #1 comdat align 2 {
  %2 = alloca ptr, align 8
  store ptr %0, ptr %2, align 8
  %3 = load ptr, ptr %2, align 8
  %4 = getelementptr inbounds %"class.ciTypeFlow::Block", ptr %3, i32 0, i32 5
  %5 = load ptr, ptr %4, align 8
  ret ptr %5
}

; Function Attrs: mustprogress nounwind uwtable
define linkonce_odr hidden noundef i32 @_ZNK10ciTypeFlow5Block10post_orderEv(ptr noundef nonnull align 8 dereferenceable(120) %0) #1 comdat align 2 {
  %2 = alloca ptr, align 8
  store ptr %0, ptr %2, align 8
  %3 = load ptr, ptr %2, align 8
  %4 = getelementptr inbounds %"class.ciTypeFlow::Block", ptr %3, i32 0, i32 10
  %5 = load i32, ptr %4, align 4
  ret i32 %5
}

; Function Attrs: mustprogress nounwind uwtable
define linkonce_odr hidden noundef i32 @_ZNK10ciTypeFlow11block_countEv(ptr noundef nonnull align 8 dereferenceable(88) %0) #1 comdat align 2 {
  %2 = alloca ptr, align 8
  store ptr %0, ptr %2, align 8
  %3 = load ptr, ptr %2, align 8
  %4 = getelementptr inbounds %class.ciTypeFlow, ptr %3, i32 0, i32 9
  %5 = load i32, ptr %4, align 8
  ret i32 %5
}

; Function Attrs: mustprogress nounwind uwtable
define linkonce_odr hidden noundef ptr @_ZNK10ciTypeFlow5Block5outerEv(ptr noundef nonnull align 8 dereferenceable(120) %0) #1 comdat align 2 {
  %2 = alloca ptr, align 8
  store ptr %0, ptr %2, align 8
  %3 = load ptr, ptr %2, align 8
  %4 = call noundef ptr @_ZNK10ciTypeFlow5Block5stateEv(ptr noundef nonnull align 8 dereferenceable(120) %3)
  %5 = call noundef ptr @_ZNK10ciTypeFlow11StateVector5outerEv(ptr noundef nonnull align 8 dereferenceable(40) %4)
  ret ptr %5
}

; Function Attrs: mustprogress nounwind uwtable
define linkonce_odr hidden noundef ptr @_ZN5Parse6rpo_atEi(ptr noundef nonnull align 8 dereferenceable(352) %0, i32 noundef %1) #1 comdat align 2 {
  %3 = alloca ptr, align 8
  %4 = alloca i32, align 4
  store ptr %0, ptr %3, align 8
  store i32 %1, ptr %4, align 4
  %5 = load ptr, ptr %3, align 8
  %6 = getelementptr inbounds %class.Parse, ptr %5, i32 0, i32 8
  %7 = load ptr, ptr %6, align 8
  %8 = load i32, ptr %4, align 4
  %9 = sext i32 %8 to i64
  %10 = getelementptr inbounds %"class.Parse::Block", ptr %7, i64 %9
  ret ptr %10
}

; Function Attrs: mustprogress nounwind uwtable
define linkonce_odr hidden noundef i32 @_ZNK10ciTypeFlow5Block3rpoEv(ptr noundef nonnull align 8 dereferenceable(120) %0) #1 comdat align 2 {
  %2 = alloca ptr, align 8
  store ptr %0, ptr %2, align 8
  %3 = load ptr, ptr %2, align 8
  %4 = call noundef ptr @_ZNK10ciTypeFlow5Block5outerEv(ptr noundef nonnull align 8 dereferenceable(120) %3)
  %5 = call noundef i32 @_ZNK10ciTypeFlow11block_countEv(ptr noundef nonnull align 8 dereferenceable(88) %4)
  %6 = call noundef i32 @_ZNK10ciTypeFlow5Block10post_orderEv(ptr noundef nonnull align 8 dereferenceable(120) %3)
  %7 = sub nsw i32 %5, %6
  %8 = sub nsw i32 %7, 1
  ret i32 %8
}

; Function Attrs: mustprogress nounwind uwtable
define linkonce_odr hidden noundef nonnull align 8 dereferenceable(8) ptr @_ZN17GrowableArrayViewIPN10ciTypeFlow5BlockEE2atEi(ptr noundef nonnull align 8 dereferenceable(16) %0, i32 noundef %1) #1 comdat align 2 {
  %3 = alloca ptr, align 8
  %4 = alloca i32, align 4
  store ptr %0, ptr %3, align 8
  store i32 %1, ptr %4, align 4
  %5 = load ptr, ptr %3, align 8
  %6 = getelementptr inbounds %class.GrowableArrayView.14, ptr %5, i32 0, i32 1
  %7 = load ptr, ptr %6, align 8
  %8 = load i32, ptr %4, align 4
  %9 = sext i32 %8 to i64
  %10 = getelementptr inbounds ptr, ptr %7, i64 %9
  ret ptr %10
}

; Function Attrs: mustprogress nounwind uwtable
define linkonce_odr hidden noundef i32 @_ZNK17GrowableArrayBase6lengthEv(ptr noundef nonnull align 4 dereferenceable(8) %0) #1 comdat align 2 {
  %2 = alloca ptr, align 8
  store ptr %0, ptr %2, align 8
  %3 = load ptr, ptr %2, align 8
  %4 = getelementptr inbounds %class.GrowableArrayBase, ptr %3, i32 0, i32 0
  %5 = load i32, ptr %4, align 4
  ret i32 %5
}

; Function Attrs: mustprogress nounwind uwtable
define linkonce_odr hidden noundef ptr @_ZN10ciTypeFlow5Block10exceptionsEv(ptr noundef nonnull align 8 dereferenceable(120) %0) #1 comdat align 2 {
  %2 = alloca ptr, align 8
  store ptr %0, ptr %2, align 8
  %3 = load ptr, ptr %2, align 8
  %4 = getelementptr inbounds %"class.ciTypeFlow::Block", ptr %3, i32 0, i32 1
  %5 = load ptr, ptr %4, align 8
  %6 = icmp eq ptr %5, null
  br i1 %6, label %7, label %8

7:                                                ; preds = %1
  call void @_ZN10ciTypeFlow5Block18compute_exceptionsEv(ptr noundef nonnull align 8 dereferenceable(120) %3)
  br label %8

8:                                                ; preds = %7, %1
  %9 = getelementptr inbounds %"class.ciTypeFlow::Block", ptr %3, i32 0, i32 1
  %10 = load ptr, ptr %9, align 8
  ret ptr %10
}

; Function Attrs: mustprogress nounwind uwtable
define linkonce_odr hidden noundef ptr @_ZN10ciTypeFlow5Block10successorsEv(ptr noundef nonnull align 8 dereferenceable(120) %0) #1 comdat align 2 {
  %2 = alloca ptr, align 8
  store ptr %0, ptr %2, align 8
  %3 = load ptr, ptr %2, align 8
  %4 = getelementptr inbounds %"class.ciTypeFlow::Block", ptr %3, i32 0, i32 3
  %5 = load ptr, ptr %4, align 8
  ret ptr %5
}

; Function Attrs: mustprogress nounwind uwtable
define linkonce_odr hidden noundef ptr @_ZNK5Parse5Block4flowEv(ptr noundef nonnull align 8 dereferenceable(80) %0) #1 comdat align 2 {
  %2 = alloca ptr, align 8
  store ptr %0, ptr %2, align 8
  %3 = load ptr, ptr %2, align 8
  %4 = getelementptr inbounds %"class.Parse::Block", ptr %3, i32 0, i32 0
  %5 = load ptr, ptr %4, align 8
  ret ptr %5
}

; Function Attrs: mustprogress nounwind uwtable
define hidden void @_ZN5Parse5Block10init_graphEPS_(ptr noundef nonnull align 8 dereferenceable(80) %0, ptr noundef %1) #1 align 2 {
  %3 = alloca ptr, align 8
  %4 = alloca ptr, align 8
  %5 = alloca ptr, align 8
  %6 = alloca ptr, align 8
  %7 = alloca i32, align 4
  %8 = alloca i32, align 4
  %9 = alloca i32, align 4
  %10 = alloca i32, align 4
  %11 = alloca ptr, align 8
  %12 = alloca ptr, align 8
  store ptr %0, ptr %3, align 8
  store ptr %1, ptr %4, align 8
  %13 = load ptr, ptr %3, align 8
  %14 = call noundef ptr @_ZNK5Parse5Block4flowEv(ptr noundef nonnull align 8 dereferenceable(80) %13)
  %15 = call noundef ptr @_ZN10ciTypeFlow5Block10successorsEv(ptr noundef nonnull align 8 dereferenceable(120) %14)
  store ptr %15, ptr %5, align 8
  %16 = call noundef ptr @_ZNK5Parse5Block4flowEv(ptr noundef nonnull align 8 dereferenceable(80) %13)
  %17 = call noundef ptr @_ZN10ciTypeFlow5Block10exceptionsEv(ptr noundef nonnull align 8 dereferenceable(120) %16)
  store ptr %17, ptr %6, align 8
  %18 = load ptr, ptr %5, align 8
  %19 = call noundef i32 @_ZNK17GrowableArrayBase6lengthEv(ptr noundef nonnull align 4 dereferenceable(8) %18)
  store i32 %19, ptr %7, align 4
  %20 = load ptr, ptr %6, align 8
  %21 = call noundef i32 @_ZNK17GrowableArrayBase6lengthEv(ptr noundef nonnull align 4 dereferenceable(8) %20)
  store i32 %21, ptr %8, align 4
  %22 = load i32, ptr %7, align 4
  %23 = getelementptr inbounds %"class.Parse::Block", ptr %13, i32 0, i32 10
  store i32 %22, ptr %23, align 4
  %24 = load i32, ptr %7, align 4
  %25 = load i32, ptr %8, align 4
  %26 = add nsw i32 %24, %25
  %27 = getelementptr inbounds %"class.Parse::Block", ptr %13, i32 0, i32 11
  store i32 %26, ptr %27, align 8
  %28 = load i32, ptr %7, align 4
  %29 = load i32, ptr %8, align 4
  %30 = add nsw i32 %28, %29
  %31 = icmp eq i32 %30, 0
  br i1 %31, label %32, label %33

32:                                               ; preds = %2
  br label %40

33:                                               ; preds = %2
  %34 = load i32, ptr %7, align 4
  %35 = load i32, ptr %8, align 4
  %36 = add nsw i32 %34, %35
  %37 = sext i32 %36 to i64
  %38 = mul i64 %37, 8
  %39 = call noundef ptr @_Z23resource_allocate_bytesmN17AllocFailStrategy13AllocFailEnumE(i64 noundef %38, i32 noundef 0)
  br label %40

40:                                               ; preds = %33, %32
  %41 = phi ptr [ null, %32 ], [ %39, %33 ]
  %42 = getelementptr inbounds %"class.Parse::Block", ptr %13, i32 0, i32 12
  store ptr %41, ptr %42, align 8
  store i32 0, ptr %9, align 4
  store i32 0, ptr %10, align 4
  br label %43

43:                                               ; preds = %88, %40
  %44 = load i32, ptr %10, align 4
  %45 = load i32, ptr %7, align 4
  %46 = load i32, ptr %8, align 4
  %47 = add nsw i32 %45, %46
  %48 = icmp slt i32 %44, %47
  br i1 %48, label %49, label %91

49:                                               ; preds = %43
  %50 = load i32, ptr %10, align 4
  %51 = load i32, ptr %7, align 4
  %52 = icmp slt i32 %50, %51
  br i1 %52, label %53, label %58

53:                                               ; preds = %49
  %54 = load ptr, ptr %5, align 8
  %55 = load i32, ptr %10, align 4
  %56 = call noundef nonnull align 8 dereferenceable(8) ptr @_ZN17GrowableArrayViewIPN10ciTypeFlow5BlockEE2atEi(ptr noundef nonnull align 8 dereferenceable(16) %54, i32 noundef %55)
  %57 = load ptr, ptr %56, align 8
  br label %65

58:                                               ; preds = %49
  %59 = load ptr, ptr %6, align 8
  %60 = load i32, ptr %10, align 4
  %61 = load i32, ptr %7, align 4
  %62 = sub nsw i32 %60, %61
  %63 = call noundef nonnull align 8 dereferenceable(8) ptr @_ZN17GrowableArrayViewIPN10ciTypeFlow5BlockEE2atEi(ptr noundef nonnull align 8 dereferenceable(16) %59, i32 noundef %62)
  %64 = load ptr, ptr %63, align 8
  br label %65

65:                                               ; preds = %58, %53
  %66 = phi ptr [ %57, %53 ], [ %64, %58 ]
  store ptr %66, ptr %11, align 8
  %67 = load ptr, ptr %4, align 8
  %68 = load ptr, ptr %11, align 8
  %69 = call noundef i32 @_ZNK10ciTypeFlow5Block3rpoEv(ptr noundef nonnull align 8 dereferenceable(120) %68)
  %70 = call noundef ptr @_ZN5Parse6rpo_atEi(ptr noundef nonnull align 8 dereferenceable(352) %67, i32 noundef %69)
  store ptr %70, ptr %12, align 8
  %71 = load ptr, ptr %12, align 8
  %72 = getelementptr inbounds %"class.Parse::Block", ptr %13, i32 0, i32 12
  %73 = load ptr, ptr %72, align 8
  %74 = load i32, ptr %10, align 4
  %75 = sext i32 %74 to i64
  %76 = getelementptr inbounds ptr, ptr %73, i64 %75
  store ptr %71, ptr %76, align 8
  %77 = load ptr, ptr %12, align 8
  %78 = getelementptr inbounds %"class.Parse::Block", ptr %77, i32 0, i32 1
  %79 = load i32, ptr %78, align 8
  %80 = add nsw i32 %79, 1
  store i32 %80, ptr %78, align 8
  %81 = load i32, ptr %10, align 4
  %82 = load i32, ptr %7, align 4
  %83 = icmp sge i32 %81, %82
  br i1 %83, label %84, label %87

84:                                               ; preds = %65
  %85 = load ptr, ptr %12, align 8
  %86 = getelementptr inbounds %"class.Parse::Block", ptr %85, i32 0, i32 5
  store i8 1, ptr %86, align 1
  br label %87

87:                                               ; preds = %84, %65
  br label %88

88:                                               ; preds = %87
  %89 = load i32, ptr %10, align 4
  %90 = add nsw i32 %89, 1
  store i32 %90, ptr %10, align 4
  br label %43, !llvm.loop !34

91:                                               ; preds = %43
  ret void
}