; Function Attrs: mustprogress nounwind uwtable
define hidden void @_ZN5Parse5Block10init_graphEPS_(ptr nocapture noundef nonnull align 8 dereferenceable(80) %0, ptr nocapture noundef readonly %1) local_unnamed_addr #0 align 2 {
  %3 = load ptr, ptr %0, align 8
  %4 = getelementptr inbounds i8, ptr %3, i64 24
  %5 = load ptr, ptr %4, align 8
  %6 = getelementptr inbounds i8, ptr %3, i64 8
  %7 = load ptr, ptr %6, align 8
  %8 = icmp eq ptr %7, null
  br i1 %8, label %9, label %_ZN10ciTypeFlow5Block10exceptionsEv.exit

9:                                                ; preds = %2
  tail call void @_ZN10ciTypeFlow5Block18compute_exceptionsEv(ptr noundef nonnull align 8 dereferenceable(120) %3) #14
  %.pre.i = load ptr, ptr %6, align 8
  br label %_ZN10ciTypeFlow5Block10exceptionsEv.exit

_ZN10ciTypeFlow5Block10exceptionsEv.exit:         ; preds = %2, %9
  %10 = phi ptr [ %.pre.i, %9 ], [ %7, %2 ]
  %11 = load i32, ptr %5, align 4
  %12 = load i32, ptr %10, align 4
  %13 = getelementptr inbounds i8, ptr %0, i64 60
  store i32 %11, ptr %13, align 4
  %14 = add nsw i32 %12, %11
  %15 = getelementptr inbounds i8, ptr %0, i64 64
  store i32 %14, ptr %15, align 8
  %16 = icmp eq i32 %14, 0
  br i1 %16, label %.thread, label %18

.thread:                                          ; preds = %_ZN10ciTypeFlow5Block10exceptionsEv.exit
  %17 = getelementptr inbounds i8, ptr %0, i64 72
  store ptr null, ptr %17, align 8
  br label %._crit_edge

18:                                               ; preds = %_ZN10ciTypeFlow5Block10exceptionsEv.exit
  %19 = sext i32 %14 to i64
  %20 = shl nsw i64 %19, 3
  %21 = tail call noundef ptr @_Z23resource_allocate_bytesmN17AllocFailStrategy13AllocFailEnumE(i64 noundef %20, i32 noundef 0) #14
  %22 = getelementptr inbounds i8, ptr %0, i64 72
  store ptr %21, ptr %22, align 8
  %23 = icmp sgt i32 %14, 0
  br i1 %23, label %.lr.ph, label %._crit_edge

.lr.ph:                                           ; preds = %18
  %24 = getelementptr inbounds i8, ptr %1, i64 136
  %25 = sext i32 %11 to i64
  %wide.trip.count = zext nneg i32 %14 to i64
  br label %26

26:                                               ; preds = %.lr.ph, %52
  %indvars.iv = phi i64 [ 0, %.lr.ph ], [ %indvars.iv.next, %52 ]
  %27 = icmp slt i64 %indvars.iv, %25
  %.sink33.v = select i1 %27, ptr %5, ptr %10
  %.sink33 = getelementptr inbounds i8, ptr %.sink33.v, i64 8
  %28 = select i1 %27, i64 0, i64 %25
  %.sink32 = sub nsw i64 %indvars.iv, %28
  %29 = load ptr, ptr %.sink33, align 8
  %30 = getelementptr inbounds ptr, ptr %29, i64 %.sink32
  %31 = load ptr, ptr %30, align 8
  %32 = getelementptr inbounds i8, ptr %31, i64 56
  %33 = load ptr, ptr %32, align 8
  %34 = getelementptr inbounds i8, ptr %33, i64 16
  %35 = load ptr, ptr %34, align 8
  %36 = getelementptr inbounds i8, ptr %35, i64 64
  %37 = load i32, ptr %36, align 8
  %38 = getelementptr inbounds i8, ptr %31, i64 84
  %39 = load i32, ptr %38, align 4
  %40 = xor i32 %39, -1
  %41 = add i32 %37, %40
  %42 = load ptr, ptr %24, align 8
  %43 = sext i32 %41 to i64
  %44 = getelementptr inbounds %"class.Parse::Block", ptr %42, i64 %43
  %45 = load ptr, ptr %22, align 8
  %46 = getelementptr inbounds ptr, ptr %45, i64 %indvars.iv
  store ptr %44, ptr %46, align 8
  %47 = getelementptr inbounds i8, ptr %44, i64 8
  %48 = load i32, ptr %47, align 8
  %49 = add nsw i32 %48, 1
  store i32 %49, ptr %47, align 8
  br i1 %27, label %52, label %50

50:                                               ; preds = %26
  %51 = getelementptr inbounds i8, ptr %44, i64 21
  store i8 1, ptr %51, align 1
  br label %52

52:                                               ; preds = %26, %50
  %indvars.iv.next = add nuw nsw i64 %indvars.iv, 1
  %exitcond.not = icmp eq i64 %indvars.iv.next, %wide.trip.count
  br i1 %exitcond.not, label %._crit_edge, label %26, !llvm.loop !41

._crit_edge:                                      ; preds = %52, %.thread, %18
  ret void
}